target datalayout = "e-m:e-p270:32:32-p271:32:32-p272:64:64-i64:64-i128:128-f80:128-n8:16:32:64-S128"
target triple = "x86_64-pc-linux-gnu"

%struct.ForEachState = type { ptr, i32 }
%struct.List = type { i32, i32, i32, ptr, [0 x %union.ListCell] }
%union.ListCell = type { ptr }
%struct.VirtualTransactionId = type { i32, i32 }
%struct.PGPROC = type { %struct.dlist_node, ptr, ptr, i32, %struct.Latch, i32, i32, i32, i32, %struct.anon, i32, i32, i32, i8, i8, i8, i8, %struct.proclist_node, %struct.proclist_node, ptr, ptr, i32, i32, %struct.pg_atomic_uint64, i32, i8, i64, i32, %struct.dlist_node, [16 x %struct.dlist_head], %struct.XidCacheStatus, %struct.XidCache, i8, %struct.pg_atomic_uint32, i32, i32, i8, %struct.pg_atomic_uint32, i32, i32, i64, i64, %struct.LWLock, ptr, ptr, i8, i32, ptr, %struct.dlist_head, %struct.dlist_node }
%struct.Latch = type { i32, i32, i8, i32 }
%struct.anon = type { i32, i32 }
%struct.proclist_node = type { i32, i32 }
%struct.pg_atomic_uint64 = type { i64 }
%struct.XidCacheStatus = type { i8, i8 }
%struct.XidCache = type { [64 x i32] }
%struct.pg_atomic_uint32 = type { i32 }
%struct.LWLock = type { i16, %struct.pg_atomic_uint32, %struct.proclist_head }
%struct.proclist_head = type { i32, i32 }
%struct.dlist_head = type { %struct.dlist_node }
%struct.dlist_node = type { ptr, ptr }

@__const.WaitForLockersMultiple.index = private unnamed_addr constant [3 x i32] [i32 3, i32 4, i32 5], align 4

; Function Attrs: nounwind uwtable
define dso_local void @WaitForLockersMultiple(ptr noundef %0, i32 noundef %1, i1 noundef zeroext %2) #0 {
  %4 = alloca ptr, align 8
  %5 = alloca i32, align 4
  %6 = alloca i8, align 1
  %7 = alloca ptr, align 8
  %8 = alloca ptr, align 8
  %9 = alloca i32, align 4
  %10 = alloca i32, align 4
  %11 = alloca i32, align 4
  %12 = alloca %struct.ForEachState, align 8
  %13 = alloca ptr, align 8
  %14 = alloca i32, align 4
  %15 = alloca %struct.ForEachState, align 8
  %16 = alloca ptr, align 8
  %17 = alloca ptr, align 8
  %18 = alloca [3 x i32], align 4
  %19 = alloca [3 x i64], align 16
  store ptr %0, ptr %4, align 8
  store i32 %1, ptr %5, align 4
  %20 = zext i1 %2 to i8
  store i8 %20, ptr %6, align 1
  call void @llvm.lifetime.start.p0(i64 8, ptr %7) #6
  store ptr null, ptr %7, align 8
  call void @llvm.lifetime.start.p0(i64 8, ptr %8) #6
  call void @llvm.lifetime.start.p0(i64 4, ptr %9) #6
  store i32 0, ptr %9, align 4
  call void @llvm.lifetime.start.p0(i64 4, ptr %10) #6
  store i32 0, ptr %10, align 4
  %21 = load ptr, ptr %4, align 8
  %22 = icmp eq ptr %21, null
  br i1 %22, label %23, label %24

23:                                               ; preds = %3
  store i32 1, ptr %11, align 4
  br label %167

24:                                               ; preds = %3
  call void @llvm.lifetime.start.p0(i64 16, ptr %12) #6
  %25 = getelementptr inbounds nuw %struct.ForEachState, ptr %12, i32 0, i32 0
  %26 = load ptr, ptr %4, align 8
  store ptr %26, ptr %25, align 8
  %27 = getelementptr inbounds nuw %struct.ForEachState, ptr %12, i32 0, i32 1
  store i32 0, ptr %27, align 8
  %28 = getelementptr i8, ptr %12, i64 12
  call void @llvm.memset.p0.i64(ptr align 4 %28, i8 0, i64 4, i1 false)
  br label %29

29:                                               ; preds = %76, %24
  %30 = getelementptr inbounds nuw %struct.ForEachState, ptr %12, i32 0, i32 0
  %31 = load ptr, ptr %30, align 8
  %32 = icmp ne ptr %31, null
  br i1 %32, label %33, label %50

33:                                               ; preds = %29
  %34 = getelementptr inbounds nuw %struct.ForEachState, ptr %12, i32 0, i32 1
  %35 = load i32, ptr %34, align 8
  %36 = getelementptr inbounds nuw %struct.ForEachState, ptr %12, i32 0, i32 0
  %37 = load ptr, ptr %36, align 8
  %38 = getelementptr inbounds nuw %struct.List, ptr %37, i32 0, i32 1
  %39 = load i32, ptr %38, align 4
  %40 = icmp slt i32 %35, %39
  br i1 %40, label %41, label %50

41:                                               ; preds = %33
  %42 = getelementptr inbounds nuw %struct.ForEachState, ptr %12, i32 0, i32 0
  %43 = load ptr, ptr %42, align 8
  %44 = getelementptr inbounds nuw %struct.List, ptr %43, i32 0, i32 3
  %45 = load ptr, ptr %44, align 8
  %46 = getelementptr inbounds nuw %struct.ForEachState, ptr %12, i32 0, i32 1
  %47 = load i32, ptr %46, align 8
  %48 = sext i32 %47 to i64
  %49 = getelementptr inbounds %union.ListCell, ptr %45, i64 %48
  store ptr %49, ptr %8, align 8
  br label %51

50:                                               ; preds = %33, %29
  store ptr null, ptr %8, align 8
  br label %51

51:                                               ; preds = %50, %41
  %52 = phi i32 [ 1, %41 ], [ 0, %50 ]
  %53 = icmp ne i32 %52, 0
  br i1 %53, label %55, label %54

54:                                               ; preds = %51
  store i32 2, ptr %11, align 4
  call void @llvm.lifetime.end.p0(i64 16, ptr %12) #6
  br label %80

55:                                               ; preds = %51
  call void @llvm.lifetime.start.p0(i64 8, ptr %13) #6
  %56 = load ptr, ptr %8, align 8
  %57 = load ptr, ptr %56, align 8
  store ptr %57, ptr %13, align 8
  call void @llvm.lifetime.start.p0(i64 4, ptr %14) #6
  %58 = load ptr, ptr %7, align 8
  %59 = load ptr, ptr %13, align 8
  %60 = load i32, ptr %5, align 4
  %61 = load i8, ptr %6, align 1, !range !4, !noundef !5
  %62 = trunc i8 %61 to i1
  br i1 %62, label %63, label %64

63:                                               ; preds = %55
  br label %65

64:                                               ; preds = %55
  br label %65

65:                                               ; preds = %64, %63
  %66 = phi ptr [ %14, %63 ], [ null, %64 ]
  %67 = call ptr @GetLockConflicts(ptr noundef %59, i32 noundef %60, ptr noundef %66)
  %68 = call ptr @lappend(ptr noundef %58, ptr noundef %67)
  store ptr %68, ptr %7, align 8
  %69 = load i8, ptr %6, align 1, !range !4, !noundef !5
  %70 = trunc i8 %69 to i1
  br i1 %70, label %71, label %75

71:                                               ; preds = %65
  %72 = load i32, ptr %14, align 4
  %73 = load i32, ptr %9, align 4
  %74 = add i32 %73, %72
  store i32 %74, ptr %9, align 4
  br label %75

75:                                               ; preds = %71, %65
  call void @llvm.lifetime.end.p0(i64 4, ptr %14) #6
  call void @llvm.lifetime.end.p0(i64 8, ptr %13) #6
  br label %76

76:                                               ; preds = %75
  %77 = getelementptr inbounds nuw %struct.ForEachState, ptr %12, i32 0, i32 1
  %78 = load i32, ptr %77, align 8
  %79 = add i32 %78, 1
  store i32 %79, ptr %77, align 8
  br label %29, !llvm.loop !6

80:                                               ; preds = %54
  %81 = load i8, ptr %6, align 1, !range !4, !noundef !5
  %82 = trunc i8 %81 to i1
  br i1 %82, label %83, label %86

83:                                               ; preds = %80
  %84 = load i32, ptr %9, align 4
  %85 = sext i32 %84 to i64
  call void @pgstat_progress_update_param(i32 noundef 3, i64 noundef %85)
  br label %86

86:                                               ; preds = %83, %80
  call void @llvm.lifetime.start.p0(i64 16, ptr %15) #6
  %87 = getelementptr inbounds nuw %struct.ForEachState, ptr %15, i32 0, i32 0
  %88 = load ptr, ptr %7, align 8
  store ptr %88, ptr %87, align 8
  %89 = getelementptr inbounds nuw %struct.ForEachState, ptr %15, i32 0, i32 1
  store i32 0, ptr %89, align 8
  %90 = getelementptr i8, ptr %15, i64 12
  call void @llvm.memset.p0.i64(ptr align 4 %90, i8 0, i64 4, i1 false)
  br label %91

91:                                               ; preds = %155, %86
  %92 = getelementptr inbounds nuw %struct.ForEachState, ptr %15, i32 0, i32 0
  %93 = load ptr, ptr %92, align 8
  %94 = icmp ne ptr %93, null
  br i1 %94, label %95, label %112

95:                                               ; preds = %91
  %96 = getelementptr inbounds nuw %struct.ForEachState, ptr %15, i32 0, i32 1
  %97 = load i32, ptr %96, align 8
  %98 = getelementptr inbounds nuw %struct.ForEachState, ptr %15, i32 0, i32 0
  %99 = load ptr, ptr %98, align 8
  %100 = getelementptr inbounds nuw %struct.List, ptr %99, i32 0, i32 1
  %101 = load i32, ptr %100, align 4
  %102 = icmp slt i32 %97, %101
  br i1 %102, label %103, label %112

103:                                              ; preds = %95
  %104 = getelementptr inbounds nuw %struct.ForEachState, ptr %15, i32 0, i32 0
  %105 = load ptr, ptr %104, align 8
  %106 = getelementptr inbounds nuw %struct.List, ptr %105, i32 0, i32 3
  %107 = load ptr, ptr %106, align 8
  %108 = getelementptr inbounds nuw %struct.ForEachState, ptr %15, i32 0, i32 1
  %109 = load i32, ptr %108, align 8
  %110 = sext i32 %109 to i64
  %111 = getelementptr inbounds %union.ListCell, ptr %107, i64 %110
  store ptr %111, ptr %8, align 8
  br label %113

112:                                              ; preds = %95, %91
  store ptr null, ptr %8, align 8
  br label %113

113:                                              ; preds = %112, %103
  %114 = phi i32 [ 1, %103 ], [ 0, %112 ]
  %115 = icmp ne i32 %114, 0
  br i1 %115, label %117, label %116

116:                                              ; preds = %113
  store i32 5, ptr %11, align 4
  call void @llvm.lifetime.end.p0(i64 16, ptr %15) #6
  br label %159

117:                                              ; preds = %113
  call void @llvm.lifetime.start.p0(i64 8, ptr %16) #6
  %118 = load ptr, ptr %8, align 8
  %119 = load ptr, ptr %118, align 8
  store ptr %119, ptr %16, align 8
  br label %120

120:                                              ; preds = %153, %117
  %121 = load ptr, ptr %16, align 8
  %122 = getelementptr inbounds nuw %struct.VirtualTransactionId, ptr %121, i32 0, i32 1
  %123 = load i32, ptr %122, align 4
  %124 = icmp ne i32 %123, 0
  br i1 %124, label %125, label %154

125:                                              ; preds = %120
  %126 = load i8, ptr %6, align 1, !range !4, !noundef !5
  %127 = trunc i8 %126 to i1
  br i1 %127, label %128, label %141

128:                                              ; preds = %125
  call void @llvm.lifetime.start.p0(i64 8, ptr %17) #6
  %129 = load ptr, ptr %16, align 8
  %130 = getelementptr inbounds nuw %struct.VirtualTransactionId, ptr %129, i32 0, i32 0
  %131 = load i32, ptr %130, align 4
  %132 = call ptr @ProcNumberGetProc(i32 noundef %131)
  store ptr %132, ptr %17, align 8
  %133 = load ptr, ptr %17, align 8
  %134 = icmp ne ptr %133, null
  br i1 %134, label %135, label %140

135:                                              ; preds = %128
  %136 = load ptr, ptr %17, align 8
  %137 = getelementptr inbounds nuw %struct.PGPROC, ptr %136, i32 0, i32 7
  %138 = load i32, ptr %137, align 4
  %139 = sext i32 %138 to i64
  call void @pgstat_progress_update_param(i32 noundef 5, i64 noundef %139)
  br label %140

140:                                              ; preds = %135, %128
  call void @llvm.lifetime.end.p0(i64 8, ptr %17) #6
  br label %141

141:                                              ; preds = %140, %125
  %142 = load ptr, ptr %16, align 8
  %143 = load i64, ptr %142, align 4
  %144 = call zeroext i1 @VirtualXactLock(i64 %143, i1 noundef zeroext true)
  %145 = load ptr, ptr %16, align 8
  %146 = getelementptr inbounds nuw %struct.VirtualTransactionId, ptr %145, i32 1
  store ptr %146, ptr %16, align 8
  %147 = load i8, ptr %6, align 1, !range !4, !noundef !5
  %148 = trunc i8 %147 to i1
  br i1 %148, label %149, label %153

149:                                              ; preds = %141
  %150 = load i32, ptr %10, align 4
  %151 = add i32 %150, 1
  store i32 %151, ptr %10, align 4
  %152 = sext i32 %151 to i64
  call void @pgstat_progress_update_param(i32 noundef 4, i64 noundef %152)
  br label %153

153:                                              ; preds = %149, %141
  br label %120, !llvm.loop !8

154:                                              ; preds = %120
  call void @llvm.lifetime.end.p0(i64 8, ptr %16) #6
  br label %155

155:                                              ; preds = %154
  %156 = getelementptr inbounds nuw %struct.ForEachState, ptr %15, i32 0, i32 1
  %157 = load i32, ptr %156, align 8
  %158 = add i32 %157, 1
  store i32 %158, ptr %156, align 8
  br label %91, !llvm.loop !9

159:                                              ; preds = %116
  %160 = load i8, ptr %6, align 1, !range !4, !noundef !5
  %161 = trunc i8 %160 to i1
  br i1 %161, label %162, label %165

162:                                              ; preds = %159
  call void @llvm.lifetime.start.p0(i64 12, ptr %18) #6
  call void @llvm.memcpy.p0.p0.i64(ptr align 4 %18, ptr align 4 @__const.WaitForLockersMultiple.index, i64 12, i1 false)
  call void @llvm.lifetime.start.p0(i64 24, ptr %19) #6
  call void @llvm.memset.p0.i64(ptr align 16 %19, i8 0, i64 24, i1 false)
  %163 = getelementptr inbounds [3 x i32], ptr %18, i64 0, i64 0
  %164 = getelementptr inbounds [3 x i64], ptr %19, i64 0, i64 0
  call void @pgstat_progress_update_multi_param(i32 noundef 3, ptr noundef %163, ptr noundef %164)
  call void @llvm.lifetime.end.p0(i64 24, ptr %19) #6
  call void @llvm.lifetime.end.p0(i64 12, ptr %18) #6
  br label %165

165:                                              ; preds = %162, %159
  %166 = load ptr, ptr %7, align 8
  call void @list_free_deep(ptr noundef %166)
  store i32 0, ptr %11, align 4
  br label %167

167:                                              ; preds = %165, %23
  call void @llvm.lifetime.end.p0(i64 4, ptr %10) #6
  call void @llvm.lifetime.end.p0(i64 4, ptr %9) #6
  call void @llvm.lifetime.end.p0(i64 8, ptr %8) #6
  call void @llvm.lifetime.end.p0(i64 8, ptr %7) #6
  %168 = load i32, ptr %11, align 4
  switch i32 %168, label %170 [
    i32 0, label %169
    i32 1, label %169
  ]

169:                                              ; preds = %167, %167
  ret void

170:                                              ; preds = %167
  unreachable
}